(dp1
S'TYR.OH'
p2
(lp3
sS'PHE.PSEU'
p4
(lp5
sS'HIS.PSEU'
p6
(lp7
sS'GLN.PSEU'
p8
(lp9
sS'SER.OG'
p10
(lp11
sS'TRP.NE1'
p12
(lp13
sS'THR.OG1'
p14
(lp15
sS'ASN.PSEU'
p16
(lp17
sS'ARG.CZ'
p18
(lp19
sS'MET.SD'
p20
(lp21
sS'TRP.PSEU'
p22
(lp23
sS'PRO.PSEU'
p24
(lp25
sS'ASP.PSEU'
p26
(lp27
sS'LYS.NZ'
p28
(lp29
sS'CYS.SG'
p30
(lp31
sS'TYR.PSEU'
p32
(lp33
sS'RES.O'
p34
(lp35
sS'RES.N'
p36
(lp37
sS'ILE.CB'
p38
(lp39
sS'VAL.CB'
p40
(lp41
sS'LEU.CB'
p42
(lp43
sS'ALA.CB'
p44
(lp45
sS'GLU.PSEU'
p46
(lp47
s.